; Function Attrs: mustprogress nounwind uwtable
define dso_local void @_ZN4llvm15TypeSetByHwModeC2ENS_8ArrayRefINS_17ValueTypeByHwModeEEE(ptr noundef nonnull align 8 dereferenceable(56) %0, ptr %1, i64 %2) unnamed_addr #0 align 2 {
  %4 = getelementptr inbounds i8, ptr %0, i64 8
  store i32 0, ptr %4, align 8
  %5 = getelementptr inbounds i8, ptr %0, i64 16
  store ptr null, ptr %5, align 8
  %6 = getelementptr inbounds i8, ptr %0, i64 24
  store ptr %4, ptr %6, align 8
  %7 = getelementptr inbounds i8, ptr %0, i64 32
  store ptr %4, ptr %7, align 8
  %8 = getelementptr inbounds i8, ptr %0, i64 40
  store i64 0, ptr %8, align 8
  %9 = getelementptr inbounds nuw i8, ptr %0, i64 48
  store i32 -1, ptr %9, align 8
  %10 = getelementptr inbounds nuw i8, ptr %0, i64 52
  store i32 -1, ptr %10, align 4
  %11 = icmp eq i64 %2, 0
  br i1 %11, label %._crit_edge, label %.lr.ph.preheader

.lr.ph.preheader:                                 ; preds = %3
  %12 = getelementptr inbounds nuw i8, ptr %1, i64 48
  %13 = load i32, ptr %12, align 8
  store i32 %13, ptr %9, align 8
  %14 = getelementptr inbounds %"struct.llvm::ValueTypeByHwMode", ptr %1, i64 %2
  br label %.lr.ph

.lr.ph:                                           ; preds = %.lr.ph.preheader, %.lr.ph
  %.012 = phi ptr [ %16, %.lr.ph ], [ %1, %.lr.ph.preheader ]
  %15 = tail call noundef zeroext i1 @_ZN4llvm15TypeSetByHwMode6insertERKNS_17ValueTypeByHwModeE(ptr noundef nonnull align 8 dereferenceable(56) %0, ptr noundef nonnull align 8 dereferenceable(52) %.012)
  %16 = getelementptr inbounds i8, ptr %.012, i64 56
  %.not = icmp eq ptr %16, %14
  br i1 %.not, label %._crit_edge, label %.lr.ph

._crit_edge:                                      ; preds = %.lr.ph, %3
  ret void
}